target datalayout = "e-m:e-p270:32:32-p271:32:32-p272:64:64-i64:64-i128:128-f80:128-n8:16:32:64-S128"
target triple = "x86_64-pc-linux-gnu"

%class.b3HashedOverlappingPairCache = type { %class.b3OverlappingPairCache, %class.b3AlignedObjectArray, ptr, %class.b3AlignedObjectArray.0, %class.b3AlignedObjectArray.0 }
%class.b3OverlappingPairCache = type { ptr }
%class.b3AlignedObjectArray = type <{ [4 x i8], i32, i32, [4 x i8], ptr, i8, [7 x i8] }>
%class.b3AlignedObjectArray.0 = type <{ [4 x i8], i32, i32, [4 x i8], ptr, i8, [7 x i8] }>
%struct.b3Int4 = type { %union.anon }
%union.anon = type { %struct.anon }
%struct.anon = type { i32, i32, i32, i32 }

@b3g_overlappingPairs = dso_local global i32 0, align 4

; Function Attrs: inlinehint mustprogress nounwind uwtable
define linkonce_odr dso_local noundef nonnull align 16 dereferenceable(16) ptr @_ZN20b3AlignedObjectArrayI6b3Int4EixEi(ptr noundef nonnull align 8 dereferenceable(25) %0, i32 noundef %1) #1 comdat align 2 {
  %3 = alloca ptr, align 8
  %4 = alloca i32, align 4
  store ptr %0, ptr %3, align 8, !tbaa !26
  store i32 %1, ptr %4, align 4, !tbaa !23
  %5 = load ptr, ptr %3, align 8
  %6 = getelementptr inbounds nuw %class.b3AlignedObjectArray, ptr %5, i32 0, i32 4
  %7 = load ptr, ptr %6, align 8, !tbaa !33
  %8 = load i32, ptr %4, align 4, !tbaa !23
  %9 = sext i32 %8 to i64
  %10 = getelementptr inbounds %struct.b3Int4, ptr %7, i64 %9
  ret ptr %10
}

; Function Attrs: inlinehint mustprogress nounwind uwtable
define linkonce_odr dso_local noundef i32 @_ZNK20b3AlignedObjectArrayI6b3Int4E4sizeEv(ptr noundef nonnull align 8 dereferenceable(25) %0) #1 comdat align 2 {
  %2 = alloca ptr, align 8
  store ptr %0, ptr %2, align 8, !tbaa !26
  %3 = load ptr, ptr %2, align 8
  %4 = getelementptr inbounds nuw %class.b3AlignedObjectArray, ptr %3, i32 0, i32 1
  %5 = load i32, ptr %4, align 4, !tbaa !31
  ret i32 %5
}

; Function Attrs: mustprogress uwtable
define dso_local void @_ZN28b3HashedOverlappingPairCache26processAllOverlappingPairsEP17b3OverlapCallbackP12b3Dispatcher(ptr noundef nonnull align 8 dereferenceable(112) %0, ptr noundef %1, ptr noundef %2) unnamed_addr #0 align 2 {
  %4 = alloca ptr, align 8
  %5 = alloca ptr, align 8
  %6 = alloca ptr, align 8
  %7 = alloca i32, align 4
  %8 = alloca ptr, align 8
  store ptr %0, ptr %4, align 8, !tbaa !4
  store ptr %1, ptr %5, align 8, !tbaa !63
  store ptr %2, ptr %6, align 8, !tbaa !40
  %9 = load ptr, ptr %4, align 8
  call void @llvm.lifetime.start.p0(i64 4, ptr %7) #10
  store i32 0, ptr %7, align 4, !tbaa !23
  br label %10

10:                                               ; preds = %44, %3
  %11 = load i32, ptr %7, align 4, !tbaa !23
  %12 = getelementptr inbounds nuw %class.b3HashedOverlappingPairCache, ptr %9, i32 0, i32 1
  %13 = call noundef i32 @_ZNK20b3AlignedObjectArrayI6b3Int4E4sizeEv(ptr noundef nonnull align 8 dereferenceable(25) %12)
  %14 = icmp slt i32 %11, %13
  br i1 %14, label %15, label %45

15:                                               ; preds = %10
  call void @llvm.lifetime.start.p0(i64 8, ptr %8) #10
  %16 = getelementptr inbounds nuw %class.b3HashedOverlappingPairCache, ptr %9, i32 0, i32 1
  %17 = load i32, ptr %7, align 4, !tbaa !23
  %18 = call noundef nonnull align 16 dereferenceable(16) ptr @_ZN20b3AlignedObjectArrayI6b3Int4EixEi(ptr noundef nonnull align 8 dereferenceable(25) %16, i32 noundef %17)
  store ptr %18, ptr %8, align 8, !tbaa !30
  %19 = load ptr, ptr %5, align 8, !tbaa !63
  %20 = load ptr, ptr %8, align 8, !tbaa !30
  %21 = load ptr, ptr %19, align 8, !tbaa !9
  %22 = getelementptr inbounds ptr, ptr %21, i64 2
  %23 = load ptr, ptr %22, align 8
  %24 = call noundef zeroext i1 %23(ptr noundef nonnull align 8 dereferenceable(8) %19, ptr noundef nonnull align 16 dereferenceable(16) %20)
  br i1 %24, label %25, label %41

25:                                               ; preds = %15
  %26 = load ptr, ptr %8, align 8, !tbaa !30
  %27 = getelementptr inbounds nuw %struct.b3Int4, ptr %26, i32 0, i32 0
  %28 = getelementptr inbounds nuw %struct.anon, ptr %27, i32 0, i32 0
  %29 = load i32, ptr %28, align 16, !tbaa !38
  %30 = load ptr, ptr %8, align 8, !tbaa !30
  %31 = getelementptr inbounds nuw %struct.b3Int4, ptr %30, i32 0, i32 0
  %32 = getelementptr inbounds nuw %struct.anon, ptr %31, i32 0, i32 1
  %33 = load i32, ptr %32, align 4, !tbaa !38
  %34 = load ptr, ptr %6, align 8, !tbaa !40
  %35 = load ptr, ptr %9, align 8, !tbaa !9
  %36 = getelementptr inbounds ptr, ptr %35, i64 13
  %37 = load ptr, ptr %36, align 8
  %38 = call noundef ptr %37(ptr noundef nonnull align 8 dereferenceable(112) %9, i32 noundef %29, i32 noundef %33, ptr noundef %34)
  %39 = load i32, ptr @b3g_overlappingPairs, align 4, !tbaa !23
  %40 = add nsw i32 %39, -1
  store i32 %40, ptr @b3g_overlappingPairs, align 4, !tbaa !23
  br label %44

41:                                               ; preds = %15
  %42 = load i32, ptr %7, align 4, !tbaa !23
  %43 = add nsw i32 %42, 1
  store i32 %43, ptr %7, align 4, !tbaa !23
  br label %44

44:                                               ; preds = %41, %25
  call void @llvm.lifetime.end.p0(i64 8, ptr %8) #10
  br label %10, !llvm.loop !65

45:                                               ; preds = %10
  call void @llvm.lifetime.end.p0(i64 4, ptr %7) #10
  ret void
}