; Function Attrs: mustprogress uwtable
define dso_local void @_ZN28b3HashedOverlappingPairCache26processAllOverlappingPairsEP17b3OverlapCallbackP12b3Dispatcher(ptr noundef nonnull align 8 dereferenceable(112) %0, ptr noundef %1, ptr noundef %2) unnamed_addr #0 align 2 {
  %4 = getelementptr inbounds nuw i8, ptr %0, i64 12
  %5 = load i32, ptr %4, align 4, !tbaa !16
  %6 = icmp sgt i32 %5, 0
  br i1 %6, label %.lr.ph, label %._crit_edge

.lr.ph:                                           ; preds = %3
  %7 = getelementptr inbounds nuw i8, ptr %0, i64 24
  br label %8

8:                                                ; preds = %.lr.ph, %28
  %.08 = phi i32 [ 0, %.lr.ph ], [ %.1, %28 ]
  %9 = load ptr, ptr %7, align 8, !tbaa !15
  %10 = sext i32 %.08 to i64
  %11 = getelementptr inbounds %struct.b3Int4, ptr %9, i64 %10
  %12 = load ptr, ptr %1, align 8, !tbaa !4
  %13 = getelementptr inbounds nuw i8, ptr %12, i64 16
  %14 = load ptr, ptr %13, align 8
  %15 = tail call noundef zeroext i1 %14(ptr noundef nonnull align 8 dereferenceable(8) %1, ptr noundef nonnull align 16 dereferenceable(16) %11)
  br i1 %15, label %16, label %26

16:                                               ; preds = %8
  %17 = load i32, ptr %11, align 16, !tbaa !30
  %18 = getelementptr inbounds nuw i8, ptr %11, i64 4
  %19 = load i32, ptr %18, align 4, !tbaa !30
  %20 = load ptr, ptr %0, align 8, !tbaa !4
  %21 = getelementptr inbounds nuw i8, ptr %20, i64 104
  %22 = load ptr, ptr %21, align 8
  %23 = tail call noundef ptr %22(ptr noundef nonnull align 8 dereferenceable(112) %0, i32 noundef %17, i32 noundef %19, ptr noundef %2)
  %24 = load i32, ptr @b3g_overlappingPairs, align 4, !tbaa !35
  %25 = add nsw i32 %24, -1
  store i32 %25, ptr @b3g_overlappingPairs, align 4, !tbaa !35
  br label %28

26:                                               ; preds = %8
  %27 = add nsw i32 %.08, 1
  br label %28

28:                                               ; preds = %26, %16
  %.1 = phi i32 [ %.08, %16 ], [ %27, %26 ]
  %29 = load i32, ptr %4, align 4, !tbaa !16
  %30 = icmp slt i32 %.1, %29
  br i1 %30, label %8, label %._crit_edge, !llvm.loop !51

._crit_edge:                                      ; preds = %28, %3
  ret void
}